; Function Attrs: nounwind uwtable
define ptr @l_Std_Internal_IO_Async_TCP_Socket_Client_keepAlive(ptr noundef %0, i8 noundef zeroext %1, ptr noundef %2, ptr noundef readnone captures(none) %3, ptr noundef %4) local_unnamed_addr #0 {
  %6 = tail call ptr @l_Int_toNat(ptr noundef %2) #5
  %7 = ptrtoint ptr %6 to i64
  %8 = and i64 %7, 1
  %.not.i8 = icmp eq i64 %8, 0
  br i1 %.not.i8, label %11, label %lean_uint32_of_nat.exit.thread

lean_uint32_of_nat.exit.thread:                   ; preds = %5
  %9 = lshr i64 %7, 1
  %10 = trunc i64 %9 to i32
  br label %lean_dec.exit

11:                                               ; preds = %5
  %12 = tail call i32 @lean_uint32_of_big_nat(ptr noundef %6) #5
  %13 = load i32, ptr %6, align 4, !tbaa !4
  %14 = icmp sgt i32 %13, 1
  br i1 %14, label %15, label %17, !prof !11

15:                                               ; preds = %11
  %16 = add nsw i32 %13, -1
  store i32 %16, ptr %6, align 4, !tbaa !4
  br label %lean_dec.exit

17:                                               ; preds = %11
  %.not.i = icmp eq i32 %13, 0
  br i1 %.not.i, label %lean_dec.exit, label %18

18:                                               ; preds = %17
  tail call void @lean_dec_ref_cold(ptr noundef nonnull %6) #5
  br label %lean_dec.exit

lean_dec.exit:                                    ; preds = %18, %17, %15, %lean_uint32_of_nat.exit.thread
  %19 = phi i32 [ %10, %lean_uint32_of_nat.exit.thread ], [ %12, %15 ], [ %12, %17 ], [ %12, %18 ]
  %20 = tail call ptr @lean_uv_tcp_keepalive(ptr noundef %0, i8 noundef zeroext %1, i32 noundef %19, ptr noundef %4) #5
  ret ptr %20
}